(lp0
(lp1
F2.106430155210643
aF4.195945945945946
aF1.1255924170616114
aF3.029268292682927
aa(lp2
F3.5055350553505535
aF3.105
aF1.0281385281385282
aF1.8818181818181818
aa(lp3
F3.4296028880866425
aF1.9285714285714286
aF1.0259179265658747
aF1.6342105263157896
aa(lp4
F3.41726618705036
aF1.6648793565683646
aF1.0248112189859762
aF1.2545454545454546
aa(lp5
F55.88235294117647
aF1.2883817427385893
aF1.021505376344086
aF1.0384615384615385
aa.